target datalayout = "e-m:e-p270:32:32-p271:32:32-p272:64:64-i64:64-i128:128-f80:128-n8:16:32:64-S128"
target triple = "x86_64-pc-linux-gnu"

%struct.expert_field = type { i32, i32 }
%struct._packet_info = type { ptr, ptr, i32, i32, %struct.nstime_t, %struct.nstime_t, %struct.nstime_t, i8, ptr, ptr, ptr, ptr, %struct._address, %struct._address, %struct._address, %struct._address, %struct._address, %struct._address, i32, ptr, i8, [3 x i8], %struct.anon, i32, i32, i32, i32, ptr, i8, ptr, ptr, i16, i16, i32, i32, i16, i32, i32, ptr, ptr, ptr, i8, i8, i16, i16, i16, i32, i16, i16, ptr, ptr, ptr, ptr, ptr, i32, i32 }
%struct.nstime_t = type { i64, i32 }
%struct._address = type { i32, i32, ptr, ptr }
%struct.anon = type { i8, [3 x i8] }
%struct.umts_mac_info = type { [64 x i8], [64 x i8], [64 x i8], [64 x i8], [64 x i8], i32, [64 x i8] }
%struct.fp_info = type { i32, i32, i8, i16, i8, i8, i32, i8, i32, [64 x i32], [64 x i32], i32, [16 x i8], [16 x i32], [16 x i32], i8, i32, i32, i32, i16, i16, i32, ptr, ptr, i32, i32, [8 x i8], i32, i32, i32, i8 }
%struct._proto_node = type { ptr, ptr, ptr, ptr, ptr, ptr, ptr }
%struct.field_info = type { ptr, i32, i32, i32, i32, i32, i32, ptr, ptr, ptr, i32, i32 }

@ett_mac_edch = internal global i32 0, align 4
@hf_mac_channel = internal global i32 0, align 4
@hf_mac_lch_id = internal global i32 0, align 4
@ei_mac_per_frame_info_missing = internal global %struct.expert_field zeroinitializer, align 4
@ei_mac_unknown_content = internal global %struct.expert_field zeroinitializer, align 4
@.str.65 = private unnamed_addr constant [4 x i8] c"MAC\00", align 1
@proto_umts_mac = hidden global i32 0, align 4
@rlc_dcch_handle = internal global ptr null, align 8
@rlc_ps_dtch_handle = internal global ptr null, align 8
@proto_fp = external global i32, align 4
@.str.111 = private unnamed_addr constant [8 x i8] c" (DCCH)\00", align 1
@.str.113 = private unnamed_addr constant [11 x i8] c" (PS DTCH)\00", align 1
@.str.115 = private unnamed_addr constant [11 x i8] c" (CS DTCH)\00", align 1
@.str.127 = private unnamed_addr constant [24 x i8] c" (Unknown EDCH Content)\00", align 1
@.str.128 = private unnamed_addr constant [21 x i8] c"Unknown EDCH Content\00", align 1

; Function Attrs: inlinehint nounwind null_pointer_is_valid sspstrong uwtable
define internal void @proto_item_set_generated(ptr noundef %0) #4 {
  %2 = alloca ptr, align 8
  store ptr %0, ptr %2, align 8
  %3 = load ptr, ptr %2, align 8
  %4 = icmp ne ptr %3, null
  br i1 %4, label %5, label %24

5:                                                ; preds = %1
  br label %6

6:                                                ; preds = %5
  %7 = load ptr, ptr %2, align 8
  %8 = getelementptr inbounds nuw %struct._proto_node, ptr %7, i32 0, i32 5
  %9 = load ptr, ptr %8, align 8
  %10 = icmp ne ptr %9, null
  br i1 %10, label %11, label %22

11:                                               ; preds = %6
  %12 = load ptr, ptr %2, align 8
  %13 = getelementptr inbounds nuw %struct._proto_node, ptr %12, i32 0, i32 5
  %14 = load ptr, ptr %13, align 8
  %15 = getelementptr inbounds nuw %struct.field_info, ptr %14, i32 0, i32 6
  %16 = load i32, ptr %15, align 4
  %17 = or i32 %16, 2
  %18 = load ptr, ptr %2, align 8
  %19 = getelementptr inbounds nuw %struct._proto_node, ptr %18, i32 0, i32 5
  %20 = load ptr, ptr %19, align 8
  %21 = getelementptr inbounds nuw %struct.field_info, ptr %20, i32 0, i32 6
  store i32 %17, ptr %21, align 4
  br label %22

22:                                               ; preds = %11, %6
  br label %23

23:                                               ; preds = %22
  br label %24

24:                                               ; preds = %23, %1
  ret void
}

; Function Attrs: null_pointer_is_valid sspstrong uwtable
define internal i32 @dissect_mac_fdd_edch(ptr noundef %0, ptr noundef %1, ptr noundef %2, ptr noundef %3) #1 {
  %5 = alloca i32, align 4
  %6 = alloca ptr, align 8
  %7 = alloca ptr, align 8
  %8 = alloca ptr, align 8
  %9 = alloca ptr, align 8
  %10 = alloca ptr, align 8
  %11 = alloca ptr, align 8
  %12 = alloca ptr, align 8
  %13 = alloca ptr, align 8
  %14 = alloca i16, align 2
  %15 = alloca ptr, align 8
  %16 = alloca i32, align 4
  store ptr %0, ptr %6, align 8
  store ptr %1, ptr %7, align 8
  store ptr %2, ptr %8, align 8
  store ptr %3, ptr %9, align 8
  call void @llvm.lifetime.start.p0(i64 8, ptr %10) #11
  store ptr null, ptr %10, align 8
  call void @llvm.lifetime.start.p0(i64 8, ptr %11) #11
  call void @llvm.lifetime.start.p0(i64 8, ptr %12) #11
  call void @llvm.lifetime.start.p0(i64 8, ptr %13) #11
  call void @llvm.lifetime.start.p0(i64 2, ptr %14) #11
  call void @llvm.lifetime.start.p0(i64 8, ptr %15) #11
  store ptr null, ptr %15, align 8
  %17 = load ptr, ptr %7, align 8
  %18 = getelementptr inbounds nuw %struct._packet_info, ptr %17, i32 0, i32 1
  %19 = load ptr, ptr %18, align 8
  call void @col_set_str(ptr noundef %19, i32 noundef 35, ptr noundef @.str.65)
  %20 = load ptr, ptr %8, align 8
  %21 = load i32, ptr @proto_umts_mac, align 4
  %22 = load ptr, ptr %6, align 8
  %23 = call ptr @proto_tree_add_item(ptr noundef %20, i32 noundef %21, ptr noundef %22, i32 noundef 0, i32 noundef -1, i32 noundef 0)
  store ptr %23, ptr %15, align 8
  %24 = load ptr, ptr %15, align 8
  %25 = load i32, ptr @ett_mac_edch, align 4
  %26 = call ptr @proto_item_add_subtree(ptr noundef %24, i32 noundef %25)
  store ptr %26, ptr %10, align 8
  %27 = call ptr @wmem_file_scope()
  %28 = load ptr, ptr %7, align 8
  %29 = load i32, ptr @proto_fp, align 4
  %30 = call ptr @p_get_proto_data(ptr noundef %27, ptr noundef %28, i32 noundef %29, i32 noundef 0)
  store ptr %30, ptr %13, align 8
  %31 = call ptr @wmem_file_scope()
  %32 = load ptr, ptr %7, align 8
  %33 = load i32, ptr @proto_umts_mac, align 4
  %34 = call ptr @p_get_proto_data(ptr noundef %31, ptr noundef %32, i32 noundef %33, i32 noundef 0)
  store ptr %34, ptr %12, align 8
  %35 = load ptr, ptr %12, align 8
  %36 = icmp ne ptr %35, null
  br i1 %36, label %37, label %40

37:                                               ; preds = %4
  %38 = load ptr, ptr %13, align 8
  %39 = icmp ne ptr %38, null
  br i1 %39, label %45, label %40

40:                                               ; preds = %37, %4
  %41 = load ptr, ptr %10, align 8
  %42 = load ptr, ptr %7, align 8
  %43 = load ptr, ptr %6, align 8
  %44 = call ptr @proto_tree_add_expert(ptr noundef %41, ptr noundef %42, ptr noundef @ei_mac_per_frame_info_missing, ptr noundef %43, i32 noundef 0, i32 noundef -1)
  store i32 1, ptr %5, align 4
  store i32 1, ptr %16, align 4
  br label %117

45:                                               ; preds = %37
  %46 = load ptr, ptr %13, align 8
  %47 = getelementptr inbounds nuw %struct.fp_info, ptr %46, i32 0, i32 16
  %48 = load i32, ptr %47, align 4
  %49 = trunc i32 %48 to i16
  store i16 %49, ptr %14, align 2
  %50 = load ptr, ptr %12, align 8
  %51 = getelementptr inbounds nuw %struct.umts_mac_info, ptr %50, i32 0, i32 1
  %52 = load i16, ptr %14, align 2
  %53 = zext i16 %52 to i64
  %54 = getelementptr [64 x i8], ptr %51, i64 0, i64 %53
  %55 = load i8, ptr %54, align 1
  %56 = zext i8 %55 to i32
  switch i32 %56, label %109 [
    i32 1, label %57
    i32 2, label %82
    i32 3, label %107
  ]

57:                                               ; preds = %45
  %58 = load ptr, ptr %15, align 8
  call void (ptr, ptr, ...) @proto_item_append_text(ptr noundef %58, ptr noundef @.str.111)
  %59 = load ptr, ptr %10, align 8
  %60 = load i32, ptr @hf_mac_lch_id, align 4
  %61 = load ptr, ptr %6, align 8
  %62 = load ptr, ptr %12, align 8
  %63 = getelementptr inbounds nuw %struct.umts_mac_info, ptr %62, i32 0, i32 2
  %64 = load i16, ptr %14, align 2
  %65 = zext i16 %64 to i64
  %66 = getelementptr [64 x i8], ptr %63, i64 0, i64 %65
  %67 = load i8, ptr %66, align 1
  %68 = zext i8 %67 to i32
  %69 = call ptr @proto_tree_add_uint(ptr noundef %59, i32 noundef %60, ptr noundef %61, i32 noundef 0, i32 noundef 0, i32 noundef %68)
  store ptr %69, ptr %11, align 8
  %70 = load ptr, ptr %11, align 8
  call void @proto_item_set_generated(ptr noundef %70)
  %71 = load ptr, ptr %10, align 8
  %72 = load i32, ptr @hf_mac_channel, align 4
  %73 = load ptr, ptr %6, align 8
  %74 = call ptr @proto_tree_add_uint(ptr noundef %71, i32 noundef %72, ptr noundef %73, i32 noundef 0, i32 noundef 0, i32 noundef 3)
  store ptr %74, ptr %11, align 8
  %75 = load ptr, ptr %11, align 8
  call void @proto_item_set_generated(ptr noundef %75)
  %76 = load ptr, ptr @rlc_dcch_handle, align 8
  %77 = load ptr, ptr %6, align 8
  %78 = load ptr, ptr %7, align 8
  %79 = load ptr, ptr %8, align 8
  %80 = load ptr, ptr %9, align 8
  %81 = call i32 @call_dissector_with_data(ptr noundef %76, ptr noundef %77, ptr noundef %78, ptr noundef %79, ptr noundef %80)
  br label %114

82:                                               ; preds = %45
  %83 = load ptr, ptr %15, align 8
  call void (ptr, ptr, ...) @proto_item_append_text(ptr noundef %83, ptr noundef @.str.113)
  %84 = load ptr, ptr %10, align 8
  %85 = load i32, ptr @hf_mac_lch_id, align 4
  %86 = load ptr, ptr %6, align 8
  %87 = load ptr, ptr %12, align 8
  %88 = getelementptr inbounds nuw %struct.umts_mac_info, ptr %87, i32 0, i32 2
  %89 = load i16, ptr %14, align 2
  %90 = zext i16 %89 to i64
  %91 = getelementptr [64 x i8], ptr %88, i64 0, i64 %90
  %92 = load i8, ptr %91, align 1
  %93 = zext i8 %92 to i32
  %94 = call ptr @proto_tree_add_uint(ptr noundef %84, i32 noundef %85, ptr noundef %86, i32 noundef 0, i32 noundef 0, i32 noundef %93)
  store ptr %94, ptr %11, align 8
  %95 = load ptr, ptr %11, align 8
  call void @proto_item_set_generated(ptr noundef %95)
  %96 = load ptr, ptr %10, align 8
  %97 = load i32, ptr @hf_mac_channel, align 4
  %98 = load ptr, ptr %6, align 8
  %99 = call ptr @proto_tree_add_uint(ptr noundef %96, i32 noundef %97, ptr noundef %98, i32 noundef 0, i32 noundef 0, i32 noundef 4)
  store ptr %99, ptr %11, align 8
  %100 = load ptr, ptr %11, align 8
  call void @proto_item_set_generated(ptr noundef %100)
  %101 = load ptr, ptr @rlc_ps_dtch_handle, align 8
  %102 = load ptr, ptr %6, align 8
  %103 = load ptr, ptr %7, align 8
  %104 = load ptr, ptr %8, align 8
  %105 = load ptr, ptr %9, align 8
  %106 = call i32 @call_dissector_with_data(ptr noundef %101, ptr noundef %102, ptr noundef %103, ptr noundef %104, ptr noundef %105)
  br label %114

107:                                              ; preds = %45
  %108 = load ptr, ptr %15, align 8
  call void (ptr, ptr, ...) @proto_item_append_text(ptr noundef %108, ptr noundef @.str.115)
  br label %114

109:                                              ; preds = %45
  %110 = load ptr, ptr %15, align 8
  call void (ptr, ptr, ...) @proto_item_append_text(ptr noundef %110, ptr noundef @.str.127)
  %111 = load ptr, ptr %7, align 8
  %112 = load ptr, ptr %15, align 8
  %113 = call ptr (ptr, ptr, ptr, ptr, ...) @expert_add_info_format(ptr noundef %111, ptr noundef %112, ptr noundef @ei_mac_unknown_content, ptr noundef @.str.128)
  br label %114

114:                                              ; preds = %109, %107, %82, %57
  %115 = load ptr, ptr %6, align 8
  %116 = call i32 @tvb_captured_length(ptr noundef %115)
  store i32 %116, ptr %5, align 4
  store i32 1, ptr %16, align 4
  br label %117

117:                                              ; preds = %114, %40
  call void @llvm.lifetime.end.p0(i64 8, ptr %15) #11
  call void @llvm.lifetime.end.p0(i64 2, ptr %14) #11
  call void @llvm.lifetime.end.p0(i64 8, ptr %13) #11
  call void @llvm.lifetime.end.p0(i64 8, ptr %12) #11
  call void @llvm.lifetime.end.p0(i64 8, ptr %11) #11
  call void @llvm.lifetime.end.p0(i64 8, ptr %10) #11
  %118 = load i32, ptr %5, align 4
  ret i32 %118
}