; Function Attrs: null_pointer_is_valid sspstrong uwtable
define internal i32 @dissect_mac_fdd_edch(ptr noundef %0, ptr noundef %1, ptr noundef %2, ptr noundef %3) #1 {
  %5 = getelementptr inbounds nuw i8, ptr %1, i64 8
  %6 = load ptr, ptr %5, align 8
  tail call void @col_set_str(ptr noundef %6, i32 noundef 35, ptr noundef nonnull @.str.65)
  %7 = load i32, ptr @proto_umts_mac, align 4
  %8 = tail call ptr @proto_tree_add_item(ptr noundef %2, i32 noundef %7, ptr noundef %0, i32 noundef 0, i32 noundef -1, i32 noundef 0)
  %9 = load i32, ptr @ett_mac_edch, align 4
  %10 = tail call ptr @proto_item_add_subtree(ptr noundef %8, i32 noundef %9)
  %11 = tail call ptr @wmem_file_scope()
  %12 = load i32, ptr @proto_fp, align 4
  %13 = tail call ptr @p_get_proto_data(ptr noundef %11, ptr noundef %1, i32 noundef %12, i32 noundef 0)
  %14 = tail call ptr @wmem_file_scope()
  %15 = load i32, ptr @proto_umts_mac, align 4
  %16 = tail call ptr @p_get_proto_data(ptr noundef %14, ptr noundef %1, i32 noundef %15, i32 noundef 0)
  %17 = icmp ne ptr %16, null
  %18 = icmp ne ptr %13, null
  %or.cond = select i1 %17, i1 %18, i1 false
  br i1 %or.cond, label %21, label %19

19:                                               ; preds = %4
  %20 = tail call ptr @proto_tree_add_expert(ptr noundef %10, ptr noundef %1, ptr noundef nonnull @ei_mac_per_frame_info_missing, ptr noundef %0, i32 noundef 0, i32 noundef -1)
  br label %84

21:                                               ; preds = %4
  %22 = getelementptr inbounds nuw i8, ptr %13, i64 692
  %23 = load i32, ptr %22, align 4
  %24 = getelementptr inbounds nuw i8, ptr %16, i64 64
  %25 = and i32 %23, 65535
  %26 = zext nneg i32 %25 to i64
  %27 = getelementptr [64 x i8], ptr %24, i64 0, i64 %26
  %28 = load i8, ptr %27, align 1
  switch i8 %28, label %80 [
    i8 1, label %29
    i8 2, label %54
    i8 3, label %79
  ]

29:                                               ; preds = %21
  tail call void (ptr, ptr, ...) @proto_item_append_text(ptr noundef %8, ptr noundef nonnull @.str.111)
  %30 = load i32, ptr @hf_mac_lch_id, align 4
  %31 = getelementptr inbounds nuw i8, ptr %16, i64 128
  %32 = getelementptr [64 x i8], ptr %31, i64 0, i64 %26
  %33 = load i8, ptr %32, align 1
  %34 = zext i8 %33 to i32
  %35 = tail call ptr @proto_tree_add_uint(ptr noundef %10, i32 noundef %30, ptr noundef %0, i32 noundef 0, i32 noundef 0, i32 noundef %34)
  %.not.i = icmp eq ptr %35, null
  br i1 %.not.i, label %proto_item_set_generated.exit, label %36

36:                                               ; preds = %29
  %37 = getelementptr inbounds nuw i8, ptr %35, i64 40
  %38 = load ptr, ptr %37, align 8
  %.not5.i = icmp eq ptr %38, null
  br i1 %.not5.i, label %proto_item_set_generated.exit, label %39

39:                                               ; preds = %36
  %40 = getelementptr inbounds nuw i8, ptr %38, i64 28
  %41 = load i32, ptr %40, align 4
  %42 = or i32 %41, 2
  store i32 %42, ptr %40, align 4
  br label %proto_item_set_generated.exit

proto_item_set_generated.exit:                    ; preds = %29, %36, %39
  %43 = load i32, ptr @hf_mac_channel, align 4
  %44 = tail call ptr @proto_tree_add_uint(ptr noundef %10, i32 noundef %43, ptr noundef %0, i32 noundef 0, i32 noundef 0, i32 noundef 3)
  %.not.i48 = icmp eq ptr %44, null
  br i1 %.not.i48, label %proto_item_set_generated.exit50, label %45

45:                                               ; preds = %proto_item_set_generated.exit
  %46 = getelementptr inbounds nuw i8, ptr %44, i64 40
  %47 = load ptr, ptr %46, align 8
  %.not5.i49 = icmp eq ptr %47, null
  br i1 %.not5.i49, label %proto_item_set_generated.exit50, label %48

48:                                               ; preds = %45
  %49 = getelementptr inbounds nuw i8, ptr %47, i64 28
  %50 = load i32, ptr %49, align 4
  %51 = or i32 %50, 2
  store i32 %51, ptr %49, align 4
  br label %proto_item_set_generated.exit50

proto_item_set_generated.exit50:                  ; preds = %proto_item_set_generated.exit, %45, %48
  %52 = load ptr, ptr @rlc_dcch_handle, align 8
  %53 = tail call i32 @call_dissector_with_data(ptr noundef %52, ptr noundef %0, ptr noundef %1, ptr noundef %2, ptr noundef %3)
  br label %82

54:                                               ; preds = %21
  tail call void (ptr, ptr, ...) @proto_item_append_text(ptr noundef %8, ptr noundef nonnull @.str.113)
  %55 = load i32, ptr @hf_mac_lch_id, align 4
  %56 = getelementptr inbounds nuw i8, ptr %16, i64 128
  %57 = getelementptr [64 x i8], ptr %56, i64 0, i64 %26
  %58 = load i8, ptr %57, align 1
  %59 = zext i8 %58 to i32
  %60 = tail call ptr @proto_tree_add_uint(ptr noundef %10, i32 noundef %55, ptr noundef %0, i32 noundef 0, i32 noundef 0, i32 noundef %59)
  %.not.i51 = icmp eq ptr %60, null
  br i1 %.not.i51, label %proto_item_set_generated.exit53, label %61

61:                                               ; preds = %54
  %62 = getelementptr inbounds nuw i8, ptr %60, i64 40
  %63 = load ptr, ptr %62, align 8
  %.not5.i52 = icmp eq ptr %63, null
  br i1 %.not5.i52, label %proto_item_set_generated.exit53, label %64

64:                                               ; preds = %61
  %65 = getelementptr inbounds nuw i8, ptr %63, i64 28
  %66 = load i32, ptr %65, align 4
  %67 = or i32 %66, 2
  store i32 %67, ptr %65, align 4
  br label %proto_item_set_generated.exit53

proto_item_set_generated.exit53:                  ; preds = %54, %61, %64
  %68 = load i32, ptr @hf_mac_channel, align 4
  %69 = tail call ptr @proto_tree_add_uint(ptr noundef %10, i32 noundef %68, ptr noundef %0, i32 noundef 0, i32 noundef 0, i32 noundef 4)
  %.not.i54 = icmp eq ptr %69, null
  br i1 %.not.i54, label %proto_item_set_generated.exit56, label %70

70:                                               ; preds = %proto_item_set_generated.exit53
  %71 = getelementptr inbounds nuw i8, ptr %69, i64 40
  %72 = load ptr, ptr %71, align 8
  %.not5.i55 = icmp eq ptr %72, null
  br i1 %.not5.i55, label %proto_item_set_generated.exit56, label %73

73:                                               ; preds = %70
  %74 = getelementptr inbounds nuw i8, ptr %72, i64 28
  %75 = load i32, ptr %74, align 4
  %76 = or i32 %75, 2
  store i32 %76, ptr %74, align 4
  br label %proto_item_set_generated.exit56

proto_item_set_generated.exit56:                  ; preds = %proto_item_set_generated.exit53, %70, %73
  %77 = load ptr, ptr @rlc_ps_dtch_handle, align 8
  %78 = tail call i32 @call_dissector_with_data(ptr noundef %77, ptr noundef %0, ptr noundef %1, ptr noundef %2, ptr noundef %3)
  br label %82

79:                                               ; preds = %21
  tail call void (ptr, ptr, ...) @proto_item_append_text(ptr noundef %8, ptr noundef nonnull @.str.115)
  br label %82

80:                                               ; preds = %21
  tail call void (ptr, ptr, ...) @proto_item_append_text(ptr noundef %8, ptr noundef nonnull @.str.127)
  %81 = tail call ptr (ptr, ptr, ptr, ptr, ...) @expert_add_info_format(ptr noundef %1, ptr noundef %8, ptr noundef nonnull @ei_mac_unknown_content, ptr noundef nonnull @.str.128)
  br label %82

82:                                               ; preds = %80, %79, %proto_item_set_generated.exit56, %proto_item_set_generated.exit50
  %83 = tail call i32 @tvb_captured_length(ptr noundef %0)
  br label %84

84:                                               ; preds = %82, %19
  %.0 = phi i32 [ %83, %82 ], [ 1, %19 ]
  ret i32 %.0
}